target datalayout = "e-m:e-p270:32:32-p271:32:32-p272:64:64-i64:64-i128:128-f80:128-n8:16:32:64-S128"
target triple = "x86_64-pc-linux-gnu"

; Function Attrs: nounwind uwtable
define internal i32 @is_dNS_name(ptr noundef %0) #0 {
  %2 = alloca ptr, align 8
  %3 = alloca i64, align 8
  %4 = alloca i64, align 8
  %5 = alloca i32, align 4
  %6 = alloca i64, align 8
  %7 = alloca i64, align 8
  %8 = alloca i32, align 4
  %9 = alloca i8, align 1
  %10 = alloca i32, align 4
  store ptr %0, ptr %2, align 8, !tbaa !29
  call void @llvm.lifetime.start.p0(i64 8, ptr %3) #10
  store i64 63, ptr %3, align 8, !tbaa !35
  call void @llvm.lifetime.start.p0(i64 8, ptr %4) #10
  call void @llvm.lifetime.start.p0(i64 4, ptr %5) #10
  store i32 0, ptr %5, align 4, !tbaa !4
  call void @llvm.lifetime.start.p0(i64 8, ptr %6) #10
  %11 = load ptr, ptr %2, align 8, !tbaa !29
  %12 = call i64 @strlen(ptr noundef %11) #11
  store i64 %12, ptr %6, align 8, !tbaa !35
  call void @llvm.lifetime.start.p0(i64 8, ptr %7) #10
  store i64 0, ptr %7, align 8, !tbaa !35
  call void @llvm.lifetime.start.p0(i64 4, ptr %8) #10
  store i32 1, ptr %8, align 4, !tbaa !4
  store i64 0, ptr %4, align 8, !tbaa !35
  br label %13

13:                                               ; preds = %108, %1
  %14 = load i64, ptr %4, align 8, !tbaa !35
  %15 = load i64, ptr %6, align 8, !tbaa !35
  %16 = icmp ult i64 %14, %15
  br i1 %16, label %17, label %20

17:                                               ; preds = %13
  %18 = load i64, ptr %7, align 8, !tbaa !35
  %19 = icmp ult i64 %18, 63
  br label %20

20:                                               ; preds = %17, %13
  %21 = phi i1 [ false, %13 ], [ %19, %17 ]
  br i1 %21, label %22, label %111

22:                                               ; preds = %20
  call void @llvm.lifetime.start.p0(i64 1, ptr %9) #10
  %23 = load ptr, ptr %2, align 8, !tbaa !29
  %24 = load i64, ptr %4, align 8, !tbaa !35
  %25 = getelementptr inbounds nuw i8, ptr %23, i64 %24
  %26 = load i8, ptr %25, align 1, !tbaa !39
  store i8 %26, ptr %9, align 1, !tbaa !39
  %27 = load i8, ptr %9, align 1, !tbaa !39
  %28 = sext i8 %27 to i32
  %29 = icmp sge i32 %28, 97
  br i1 %29, label %30, label %34

30:                                               ; preds = %22
  %31 = load i8, ptr %9, align 1, !tbaa !39
  %32 = sext i8 %31 to i32
  %33 = icmp sle i32 %32, 122
  br i1 %33, label %46, label %34

34:                                               ; preds = %30, %22
  %35 = load i8, ptr %9, align 1, !tbaa !39
  %36 = sext i8 %35 to i32
  %37 = icmp sge i32 %36, 65
  br i1 %37, label %38, label %42

38:                                               ; preds = %34
  %39 = load i8, ptr %9, align 1, !tbaa !39
  %40 = sext i8 %39 to i32
  %41 = icmp sle i32 %40, 90
  br i1 %41, label %46, label %42

42:                                               ; preds = %38, %34
  %43 = load i8, ptr %9, align 1, !tbaa !39
  %44 = sext i8 %43 to i32
  %45 = icmp eq i32 %44, 95
  br i1 %45, label %46, label %49

46:                                               ; preds = %42, %38, %30
  %47 = load i64, ptr %7, align 8, !tbaa !35
  %48 = add i64 %47, 1
  store i64 %48, ptr %7, align 8, !tbaa !35
  store i32 0, ptr %8, align 4, !tbaa !4
  store i32 4, ptr %10, align 4
  br label %106

49:                                               ; preds = %42
  %50 = load i8, ptr %9, align 1, !tbaa !39
  %51 = sext i8 %50 to i32
  %52 = icmp sge i32 %51, 48
  br i1 %52, label %53, label %60

53:                                               ; preds = %49
  %54 = load i8, ptr %9, align 1, !tbaa !39
  %55 = sext i8 %54 to i32
  %56 = icmp sle i32 %55, 57
  br i1 %56, label %57, label %60

57:                                               ; preds = %53
  %58 = load i64, ptr %7, align 8, !tbaa !35
  %59 = add i64 %58, 1
  store i64 %59, ptr %7, align 8, !tbaa !35
  store i32 4, ptr %10, align 4
  br label %106

60:                                               ; preds = %53, %49
  %61 = load i64, ptr %4, align 8, !tbaa !35
  %62 = icmp ugt i64 %61, 0
  br i1 %62, label %63, label %105

63:                                               ; preds = %60
  %64 = load i64, ptr %4, align 8, !tbaa !35
  %65 = load i64, ptr %6, align 8, !tbaa !35
  %66 = sub i64 %65, 1
  %67 = icmp ult i64 %64, %66
  br i1 %67, label %68, label %105

68:                                               ; preds = %63
  %69 = load i8, ptr %9, align 1, !tbaa !39
  %70 = sext i8 %69 to i32
  %71 = icmp eq i32 %70, 45
  br i1 %71, label %72, label %75

72:                                               ; preds = %68
  %73 = load i64, ptr %7, align 8, !tbaa !35
  %74 = add i64 %73, 1
  store i64 %74, ptr %7, align 8, !tbaa !35
  store i32 4, ptr %10, align 4
  br label %106

75:                                               ; preds = %68
  %76 = load i8, ptr %9, align 1, !tbaa !39
  %77 = sext i8 %76 to i32
  %78 = icmp eq i32 %77, 46
  br i1 %78, label %79, label %104

79:                                               ; preds = %75
  %80 = load ptr, ptr %2, align 8, !tbaa !29
  %81 = load i64, ptr %4, align 8, !tbaa !35
  %82 = add i64 %81, 1
  %83 = getelementptr inbounds nuw i8, ptr %80, i64 %82
  %84 = load i8, ptr %83, align 1, !tbaa !39
  %85 = sext i8 %84 to i32
  %86 = icmp ne i32 %85, 46
  br i1 %86, label %87, label %104

87:                                               ; preds = %79
  %88 = load ptr, ptr %2, align 8, !tbaa !29
  %89 = load i64, ptr %4, align 8, !tbaa !35
  %90 = sub i64 %89, 1
  %91 = getelementptr inbounds nuw i8, ptr %88, i64 %90
  %92 = load i8, ptr %91, align 1, !tbaa !39
  %93 = sext i8 %92 to i32
  %94 = icmp ne i32 %93, 45
  br i1 %94, label %95, label %104

95:                                               ; preds = %87
  %96 = load ptr, ptr %2, align 8, !tbaa !29
  %97 = load i64, ptr %4, align 8, !tbaa !35
  %98 = add i64 %97, 1
  %99 = getelementptr inbounds nuw i8, ptr %96, i64 %98
  %100 = load i8, ptr %99, align 1, !tbaa !39
  %101 = sext i8 %100 to i32
  %102 = icmp ne i32 %101, 45
  br i1 %102, label %103, label %104

103:                                              ; preds = %95
  store i64 0, ptr %7, align 8, !tbaa !35
  store i32 1, ptr %5, align 4, !tbaa !4
  store i32 4, ptr %10, align 4
  br label %106

104:                                              ; preds = %95, %87, %79, %75
  br label %105

105:                                              ; preds = %104, %63, %60
  store i32 0, ptr %5, align 4, !tbaa !4
  store i32 2, ptr %10, align 4
  br label %106

106:                                              ; preds = %105, %103, %72, %57, %46
  call void @llvm.lifetime.end.p0(i64 1, ptr %9) #10
  %107 = load i32, ptr %10, align 4
  switch i32 %107, label %124 [
    i32 4, label %108
    i32 2, label %111
  ]

108:                                              ; preds = %106
  %109 = load i64, ptr %4, align 8, !tbaa !35
  %110 = add i64 %109, 1
  store i64 %110, ptr %4, align 8, !tbaa !35
  br label %13, !llvm.loop !123

111:                                              ; preds = %106, %20
  %112 = load i32, ptr %8, align 4, !tbaa !4
  %113 = icmp ne i32 %112, 0
  br i1 %113, label %118, label %114

114:                                              ; preds = %111
  %115 = load i64, ptr %7, align 8, !tbaa !35
  %116 = icmp eq i64 %115, 63
  %117 = xor i1 %116, true
  br label %118

118:                                              ; preds = %114, %111
  %119 = phi i1 [ false, %111 ], [ %117, %114 ]
  %120 = zext i1 %119 to i32
  %121 = load i32, ptr %5, align 4, !tbaa !4
  %122 = and i32 %121, %120
  store i32 %122, ptr %5, align 4, !tbaa !4
  %123 = load i32, ptr %5, align 4, !tbaa !4
  store i32 1, ptr %10, align 4
  call void @llvm.lifetime.end.p0(i64 4, ptr %8) #10
  call void @llvm.lifetime.end.p0(i64 8, ptr %7) #10
  call void @llvm.lifetime.end.p0(i64 8, ptr %6) #10
  call void @llvm.lifetime.end.p0(i64 4, ptr %5) #10
  call void @llvm.lifetime.end.p0(i64 8, ptr %4) #10
  call void @llvm.lifetime.end.p0(i64 8, ptr %3) #10
  ret i32 %123

124:                                              ; preds = %106
  unreachable
}