; Function Attrs: nofree nounwind memory(argmem: read) uwtable
define internal fastcc range(i32 0, 2) i32 @is_dNS_name(ptr noundef nonnull readonly captures(none) %0) unnamed_addr #7 {
  %2 = tail call i64 @strlen(ptr noundef nonnull dereferenceable(1) %0) #17
  %.not93 = icmp eq i64 %2, 0
  br i1 %.not93, label %._crit_edge, label %.lr.ph

.lr.ph:                                           ; preds = %1
  %3 = add i64 %2, -1
  br label %4

4:                                                ; preds = %.lr.ph, %28
  %.04373 = phi i64 [ 0, %.lr.ph ], [ %29, %28 ]
  %.04472 = phi i32 [ 1, %.lr.ph ], [ %.2.ph, %28 ]
  %.04571 = phi i64 [ 0, %.lr.ph ], [ %.247.ph, %28 ]
  %.04870 = phi i32 [ 0, %.lr.ph ], [ %.250.ph, %28 ]
  %5 = getelementptr inbounds nuw i8, ptr %0, i64 %.04373
  %6 = load i8, ptr %5, align 1, !tbaa !25
  %7 = add i8 %6, -97
  %or.cond = icmp ult i8 %7, 26
  br i1 %or.cond, label %11, label %8

8:                                                ; preds = %4
  %9 = add i8 %6, -65
  %or.cond5 = icmp ult i8 %9, 26
  %10 = icmp eq i8 %6, 95
  %or.cond8 = or i1 %10, %or.cond5
  br i1 %or.cond8, label %11, label %13

11:                                               ; preds = %8, %4
  %12 = add nuw nsw i64 %.04571, 1
  br label %28

13:                                               ; preds = %8
  %14 = add i8 %6, -48
  %or.cond11 = icmp ult i8 %14, 10
  br i1 %or.cond11, label %15, label %17

15:                                               ; preds = %13
  %16 = add nuw nsw i64 %.04571, 1
  br label %28

17:                                               ; preds = %13
  %.not = icmp ne i64 %.04373, 0
  %18 = icmp ult i64 %.04373, %3
  %or.cond59 = and i1 %.not, %18
  br i1 %or.cond59, label %19, label %._crit_edge.loopexit

19:                                               ; preds = %17
  switch i8 %6, label %._crit_edge.loopexit [
    i8 45, label %20
    i8 46, label %22
  ]

20:                                               ; preds = %19
  %21 = add nuw nsw i64 %.04571, 1
  br label %28

22:                                               ; preds = %19
  %23 = getelementptr i8, ptr %5, i64 1
  %24 = load i8, ptr %23, align 1, !tbaa !25
  %.not54 = icmp eq i8 %24, 46
  br i1 %.not54, label %._crit_edge.loopexit, label %25

25:                                               ; preds = %22
  %26 = getelementptr i8, ptr %5, i64 -1
  %27 = load i8, ptr %26, align 1, !tbaa !25
  %.not55 = icmp eq i8 %27, 45
  %.not56 = icmp eq i8 %24, 45
  %or.cond60 = or i1 %.not56, %.not55
  br i1 %or.cond60, label %._crit_edge.loopexit, label %28

28:                                               ; preds = %11, %15, %20, %25
  %.250.ph = phi i32 [ 1, %25 ], [ %.04870, %20 ], [ %.04870, %15 ], [ %.04870, %11 ]
  %.247.ph = phi i64 [ 0, %25 ], [ %21, %20 ], [ %16, %15 ], [ %12, %11 ]
  %.2.ph = phi i32 [ %.04472, %25 ], [ %.04472, %20 ], [ %.04472, %15 ], [ 0, %11 ]
  %29 = add nuw i64 %.04373, 1
  %30 = icmp ult i64 %29, %2
  %31 = icmp ult i64 %.247.ph, 63
  %32 = select i1 %30, i1 %31, i1 false
  br i1 %32, label %4, label %._crit_edge.loopexit, !llvm.loop !78

._crit_edge.loopexit:                             ; preds = %19, %22, %25, %17, %28
  %.045.lcssa.ph = phi i64 [ %.247.ph, %28 ], [ %.04571, %17 ], [ %.04571, %25 ], [ %.04571, %22 ], [ %.04571, %19 ]
  %.044.lcssa.ph = phi i32 [ %.2.ph, %28 ], [ %.04472, %17 ], [ %.04472, %25 ], [ %.04472, %22 ], [ %.04472, %19 ]
  %.149.ph = phi i32 [ %.250.ph, %28 ], [ 0, %17 ], [ 0, %25 ], [ 0, %22 ], [ 0, %19 ]
  %33 = icmp eq i32 %.044.lcssa.ph, 0
  %34 = icmp ne i64 %.045.lcssa.ph, 63
  %35 = select i1 %33, i1 %34, i1 false
  %36 = and i32 %.149.ph, 1
  %37 = select i1 %35, i32 %36, i32 0
  br label %._crit_edge

._crit_edge:                                      ; preds = %._crit_edge.loopexit, %1
  %.044.lcssa = phi i32 [ 0, %1 ], [ %37, %._crit_edge.loopexit ]
  ret i32 %.044.lcssa
}